target datalayout = "e-m:e-p270:32:32-p271:32:32-p272:64:64-i64:64-i128:128-f80:128-n8:16:32:64-S128"
target triple = "x86_64-pc-linux-gnu"

%struct.redisObject = type { i32, i32, ptr }
%struct.redisDb = type { ptr, ptr, ptr, ptr, ptr, ptr, ptr, i32, i64, i64, ptr }
%struct.client = type { i64, i64, ptr, i8, i8, i8, i8, i32, ptr, ptr, ptr, ptr, ptr, i64, i64, i32, ptr, i32, i32, ptr, i64, ptr, ptr, ptr, ptr, ptr, i32, i32, i64, ptr, i64, ptr, i64, i64, i64, i32, ptr, i64, i64, i32, i32, i32, i32, i64, i64, ptr, i64, i64, i64, i64, i64, i64, i64, i64, [41 x i8], i32, ptr, i32, i32, i64, %struct.multiState, %struct.blockingState, i64, ptr, ptr, ptr, ptr, ptr, ptr, ptr, ptr, ptr, ptr, ptr, ptr, ptr, ptr, i64, ptr, i64, i32, ptr, ptr, ptr, i64, %struct.listNode, i64, i64, i32, i64, ptr }
%struct.multiState = type { ptr, i32, i32, i32, i64, i32 }
%struct.blockingState = type { i32, i64, i32, ptr, i32, i32, i64, ptr, ptr, i64 }
%struct.listNode = type { ptr, ptr, ptr }

@.str.13 = private unnamed_addr constant [9 x i8] c"hexpired\00", align 1
@.str.14 = private unnamed_addr constant [4 x i8] c"del\00", align 1

; Function Attrs: nounwind uwtable
define dso_local void @hmgetCommand(ptr noundef %0) #1 {
  %2 = alloca ptr, align 8
  %3 = alloca i32, align 4
  %4 = alloca ptr, align 8
  %5 = alloca i32, align 4
  %6 = alloca i32, align 4
  %7 = alloca i32, align 4
  %8 = alloca i32, align 4
  store ptr %0, ptr %2, align 8, !tbaa !124
  call void @llvm.lifetime.start.p0(i64 4, ptr %3) #12
  store i32 0, ptr %3, align 4, !tbaa !13
  call void @llvm.lifetime.start.p0(i64 8, ptr %4) #12
  call void @llvm.lifetime.start.p0(i64 4, ptr %5) #12
  call void @llvm.lifetime.start.p0(i64 4, ptr %6) #12
  store i32 0, ptr %6, align 4, !tbaa !13
  call void @llvm.lifetime.start.p0(i64 4, ptr %7) #12
  store i32 0, ptr %7, align 4, !tbaa !13
  %9 = load ptr, ptr %2, align 8, !tbaa !124
  %10 = getelementptr inbounds nuw %struct.client, ptr %9, i32 0, i32 8
  %11 = load ptr, ptr %10, align 8, !tbaa !127
  %12 = load ptr, ptr %2, align 8, !tbaa !124
  %13 = getelementptr inbounds nuw %struct.client, ptr %12, i32 0, i32 16
  %14 = load ptr, ptr %13, align 8, !tbaa !155
  %15 = getelementptr inbounds ptr, ptr %14, i64 1
  %16 = load ptr, ptr %15, align 8, !tbaa !15
  %17 = call ptr @lookupKeyRead(ptr noundef %11, ptr noundef %16)
  store ptr %17, ptr %4, align 8, !tbaa !15
  %18 = load ptr, ptr %2, align 8, !tbaa !124
  %19 = load ptr, ptr %4, align 8, !tbaa !15
  %20 = call i32 @checkType(ptr noundef %18, ptr noundef %19, i32 noundef 4)
  %21 = icmp ne i32 %20, 0
  br i1 %21, label %22, label %23

22:                                               ; preds = %1
  store i32 1, ptr %8, align 4
  br label %97

23:                                               ; preds = %1
  %24 = load ptr, ptr %2, align 8, !tbaa !124
  %25 = load ptr, ptr %2, align 8, !tbaa !124
  %26 = getelementptr inbounds nuw %struct.client, ptr %25, i32 0, i32 15
  %27 = load i32, ptr %26, align 8, !tbaa !159
  %28 = sub nsw i32 %27, 2
  %29 = sext i32 %28 to i64
  call void @addReplyArrayLen(ptr noundef %24, i64 noundef %29)
  store i32 2, ptr %5, align 4, !tbaa !13
  br label %30

30:                                               ; preds = %65, %23
  %31 = load i32, ptr %5, align 4, !tbaa !13
  %32 = load ptr, ptr %2, align 8, !tbaa !124
  %33 = getelementptr inbounds nuw %struct.client, ptr %32, i32 0, i32 15
  %34 = load i32, ptr %33, align 8, !tbaa !159
  %35 = icmp slt i32 %31, %34
  br i1 %35, label %36, label %68

36:                                               ; preds = %30
  %37 = load i32, ptr %7, align 4, !tbaa !13
  %38 = icmp ne i32 %37, 0
  br i1 %38, label %62, label %39

39:                                               ; preds = %36
  %40 = load ptr, ptr %2, align 8, !tbaa !124
  %41 = load ptr, ptr %4, align 8, !tbaa !15
  %42 = load ptr, ptr %2, align 8, !tbaa !124
  %43 = getelementptr inbounds nuw %struct.client, ptr %42, i32 0, i32 16
  %44 = load ptr, ptr %43, align 8, !tbaa !155
  %45 = load i32, ptr %5, align 4, !tbaa !13
  %46 = sext i32 %45 to i64
  %47 = getelementptr inbounds ptr, ptr %44, i64 %46
  %48 = load ptr, ptr %47, align 8, !tbaa !15
  %49 = getelementptr inbounds nuw %struct.redisObject, ptr %48, i32 0, i32 2
  %50 = load ptr, ptr %49, align 8, !tbaa !17
  %51 = call i32 @addHashFieldToReply(ptr noundef %40, ptr noundef %41, ptr noundef %50, i32 noundef 4)
  store i32 %51, ptr %3, align 4, !tbaa !13
  %52 = load i32, ptr %3, align 4, !tbaa !13
  %53 = icmp eq i32 %52, 2
  %54 = zext i1 %53 to i32
  %55 = load i32, ptr %6, align 4, !tbaa !13
  %56 = add nsw i32 %55, %54
  store i32 %56, ptr %6, align 4, !tbaa !13
  %57 = load i32, ptr %3, align 4, !tbaa !13
  %58 = icmp eq i32 %57, 3
  %59 = zext i1 %58 to i32
  %60 = load i32, ptr %7, align 4, !tbaa !13
  %61 = add nsw i32 %60, %59
  store i32 %61, ptr %7, align 4, !tbaa !13
  br label %64

62:                                               ; preds = %36
  %63 = load ptr, ptr %2, align 8, !tbaa !124
  call void @addReplyNull(ptr noundef %63)
  br label %64

64:                                               ; preds = %62, %39
  br label %65

65:                                               ; preds = %64
  %66 = load i32, ptr %5, align 4, !tbaa !13
  %67 = add nsw i32 %66, 1
  store i32 %67, ptr %5, align 4, !tbaa !13
  br label %30, !llvm.loop !170

68:                                               ; preds = %30
  %69 = load i32, ptr %6, align 4, !tbaa !13
  %70 = icmp ne i32 %69, 0
  br i1 %70, label %71, label %96

71:                                               ; preds = %68
  %72 = load ptr, ptr %2, align 8, !tbaa !124
  %73 = getelementptr inbounds nuw %struct.client, ptr %72, i32 0, i32 16
  %74 = load ptr, ptr %73, align 8, !tbaa !155
  %75 = getelementptr inbounds ptr, ptr %74, i64 1
  %76 = load ptr, ptr %75, align 8, !tbaa !15
  %77 = load ptr, ptr %2, align 8, !tbaa !124
  %78 = getelementptr inbounds nuw %struct.client, ptr %77, i32 0, i32 8
  %79 = load ptr, ptr %78, align 8, !tbaa !127
  %80 = getelementptr inbounds nuw %struct.redisDb, ptr %79, i32 0, i32 7
  %81 = load i32, ptr %80, align 8, !tbaa !70
  call void @notifyKeyspaceEvent(i32 noundef 64, ptr noundef @.str.13, ptr noundef %76, i32 noundef %81)
  %82 = load i32, ptr %7, align 4, !tbaa !13
  %83 = icmp ne i32 %82, 0
  br i1 %83, label %84, label %95

84:                                               ; preds = %71
  %85 = load ptr, ptr %2, align 8, !tbaa !124
  %86 = getelementptr inbounds nuw %struct.client, ptr %85, i32 0, i32 16
  %87 = load ptr, ptr %86, align 8, !tbaa !155
  %88 = getelementptr inbounds ptr, ptr %87, i64 1
  %89 = load ptr, ptr %88, align 8, !tbaa !15
  %90 = load ptr, ptr %2, align 8, !tbaa !124
  %91 = getelementptr inbounds nuw %struct.client, ptr %90, i32 0, i32 8
  %92 = load ptr, ptr %91, align 8, !tbaa !127
  %93 = getelementptr inbounds nuw %struct.redisDb, ptr %92, i32 0, i32 7
  %94 = load i32, ptr %93, align 8, !tbaa !70
  call void @notifyKeyspaceEvent(i32 noundef 4, ptr noundef @.str.14, ptr noundef %89, i32 noundef %94)
  br label %95

95:                                               ; preds = %84, %71
  br label %96

96:                                               ; preds = %95, %68
  store i32 0, ptr %8, align 4
  br label %97

97:                                               ; preds = %96, %22
  call void @llvm.lifetime.end.p0(i64 4, ptr %7) #12
  call void @llvm.lifetime.end.p0(i64 4, ptr %6) #12
  call void @llvm.lifetime.end.p0(i64 4, ptr %5) #12
  call void @llvm.lifetime.end.p0(i64 8, ptr %4) #12
  call void @llvm.lifetime.end.p0(i64 4, ptr %3) #12
  %98 = load i32, ptr %8, align 4
  switch i32 %98, label %100 [
    i32 0, label %99
    i32 1, label %99
  ]

99:                                               ; preds = %97, %97
  ret void

100:                                              ; preds = %97
  unreachable
}