; Function Attrs: nounwind uwtable
define dso_local void @hmgetCommand(ptr noundef %0) local_unnamed_addr #1 {
  %2 = getelementptr inbounds nuw i8, ptr %0, i64 32
  %3 = load ptr, ptr %2, align 8, !tbaa !109
  %4 = getelementptr inbounds nuw i8, ptr %0, i64 96
  %5 = load ptr, ptr %4, align 8, !tbaa !132
  %6 = getelementptr inbounds nuw i8, ptr %5, i64 8
  %7 = load ptr, ptr %6, align 8, !tbaa !64
  %8 = tail call ptr @lookupKeyRead(ptr noundef %3, ptr noundef %7) #16
  %9 = tail call i32 @checkType(ptr noundef %0, ptr noundef %8, i32 noundef 4) #16
  %.not = icmp eq i32 %9, 0
  br i1 %.not, label %10, label %._crit_edge.thread

10:                                               ; preds = %1
  %11 = getelementptr inbounds nuw i8, ptr %0, i64 88
  %12 = load i32, ptr %11, align 8, !tbaa !136
  %13 = add nsw i32 %12, -2
  %14 = sext i32 %13 to i64
  tail call void @addReplyArrayLen(ptr noundef nonnull %0, i64 noundef %14) #16
  %15 = load i32, ptr %11, align 8, !tbaa !136
  %16 = icmp sgt i32 %15, 2
  br i1 %16, label %.lr.ph, label %._crit_edge.thread

.lr.ph:                                           ; preds = %10, %30
  %indvars.iv = phi i64 [ %indvars.iv.next, %30 ], [ 2, %10 ]
  %.032 = phi i32 [ %.1, %30 ], [ 0, %10 ]
  %.02431 = phi i32 [ %.125, %30 ], [ 0, %10 ]
  %.not29 = icmp eq i32 %.032, 0
  br i1 %.not29, label %17, label %29

17:                                               ; preds = %.lr.ph
  %18 = load ptr, ptr %4, align 8, !tbaa !132
  %19 = getelementptr inbounds nuw ptr, ptr %18, i64 %indvars.iv
  %20 = load ptr, ptr %19, align 8, !tbaa !64
  %21 = getelementptr inbounds nuw i8, ptr %20, i64 8
  %22 = load ptr, ptr %21, align 8, !tbaa !10
  %23 = tail call fastcc i32 @addHashFieldToReply(ptr noundef nonnull %0, ptr noundef %8, ptr noundef %22, i32 noundef 4)
  %24 = icmp eq i32 %23, 2
  %25 = zext i1 %24 to i32
  %26 = add nsw i32 %.02431, %25
  %27 = icmp eq i32 %23, 3
  %28 = zext i1 %27 to i32
  br label %30

29:                                               ; preds = %.lr.ph
  tail call void @addReplyNull(ptr noundef nonnull %0) #16
  br label %30

30:                                               ; preds = %17, %29
  %.125 = phi i32 [ %.02431, %29 ], [ %26, %17 ]
  %.1 = phi i32 [ 1, %29 ], [ %28, %17 ]
  %indvars.iv.next = add nuw nsw i64 %indvars.iv, 1
  %31 = load i32, ptr %11, align 8, !tbaa !136
  %32 = sext i32 %31 to i64
  %33 = icmp slt i64 %indvars.iv.next, %32
  br i1 %33, label %.lr.ph, label %._crit_edge, !llvm.loop !147

._crit_edge:                                      ; preds = %30
  %34 = icmp eq i32 %.125, 0
  br i1 %34, label %._crit_edge.thread, label %35

35:                                               ; preds = %._crit_edge
  %36 = icmp eq i32 %.1, 0
  %37 = load ptr, ptr %4, align 8, !tbaa !132
  %38 = getelementptr inbounds nuw i8, ptr %37, i64 8
  %39 = load ptr, ptr %38, align 8, !tbaa !64
  %40 = load ptr, ptr %2, align 8, !tbaa !109
  %41 = getelementptr inbounds nuw i8, ptr %40, i64 56
  %42 = load i32, ptr %41, align 8, !tbaa !67
  tail call void @notifyKeyspaceEvent(i32 noundef 64, ptr noundef nonnull @.str.13, ptr noundef %39, i32 noundef %42) #16
  br i1 %36, label %._crit_edge.thread, label %43

43:                                               ; preds = %35
  %44 = load ptr, ptr %4, align 8, !tbaa !132
  %45 = getelementptr inbounds nuw i8, ptr %44, i64 8
  %46 = load ptr, ptr %45, align 8, !tbaa !64
  %47 = load ptr, ptr %2, align 8, !tbaa !109
  %48 = getelementptr inbounds nuw i8, ptr %47, i64 56
  %49 = load i32, ptr %48, align 8, !tbaa !67
  tail call void @notifyKeyspaceEvent(i32 noundef 4, ptr noundef nonnull @.str.14, ptr noundef %46, i32 noundef %49) #16
  br label %._crit_edge.thread

._crit_edge.thread:                               ; preds = %10, %._crit_edge, %43, %35, %1
  ret void
}